target datalayout = "e-m:e-p270:32:32-p271:32:32-p272:64:64-i64:64-i128:128-f80:128-n8:16:32:64-S128"
target triple = "x86_64-pc-linux-gnu"

%struct.pmix_shmem_t = type { %struct.pmix_object_t, i8, i64, ptr, ptr, [4097 x i8] }
%struct.pmix_object_t = type { %union.pthread_mutex_t, ptr, i32, %struct.pmix_tma }
%union.pthread_mutex_t = type { %struct.__pthread_mutex_s }
%struct.__pthread_mutex_s = type { i32, i32, i32, i32, i32, i16, i16, %struct.__pthread_internal_list }
%struct.__pthread_internal_list = type { ptr, ptr }
%struct.pmix_tma = type { ptr, ptr, ptr, ptr, ptr, ptr, ptr, ptr }

@.str = private unnamed_addr constant [37 x i8] c"PMIX ERROR: %s in file %s at line %d\00", align 1
@.str.1 = private unnamed_addr constant [13 x i8] c"pmix_shmem.c\00", align 1

; Function Attrs: nounwind uwtable
define internal i64 @get_page_size() #0 {
  %1 = alloca i64, align 8
  %2 = alloca i64, align 8
  %3 = alloca i32, align 4
  call void @llvm.lifetime.start.p0(i64 8, ptr %2) #7
  %4 = call i64 @sysconf(i32 noundef 30) #7
  store i64 %4, ptr %2, align 8, !tbaa !8
  %5 = load i64, ptr %2, align 8, !tbaa !8
  %6 = icmp eq i64 -1, %5
  br i1 %6, label %7, label %12

7:                                                ; preds = %0
  br label %8

8:                                                ; preds = %7
  %9 = call ptr @PMIx_Error_string(i32 noundef -1)
  call void (i32, ptr, ...) @pmix_output(i32 noundef 0, ptr noundef @.str, ptr noundef %9, ptr noundef @.str.1, i32 noundef 240)
  br label %10

10:                                               ; preds = %8
  br label %11

11:                                               ; preds = %10
  store i64 0, ptr %1, align 8
  store i32 1, ptr %3, align 4
  br label %14

12:                                               ; preds = %0
  %13 = load i64, ptr %2, align 8, !tbaa !8
  store i64 %13, ptr %1, align 8
  store i32 1, ptr %3, align 4
  br label %14

14:                                               ; preds = %12, %11
  call void @llvm.lifetime.end.p0(i64 8, ptr %2) #7
  %15 = load i64, ptr %1, align 8
  ret i64 %15
}

; Function Attrs: nounwind uwtable
define i64 @pmix_shmem_utils_pad_to_page(i64 noundef %0) #0 {
  %2 = alloca i64, align 8
  %3 = alloca i64, align 8
  %4 = alloca i64, align 8
  store i64 %0, ptr %2, align 8, !tbaa !8
  call void @llvm.lifetime.start.p0(i64 8, ptr %3) #7
  %5 = call i64 @get_page_size()
  store i64 %5, ptr %3, align 8, !tbaa !8
  call void @llvm.lifetime.start.p0(i64 8, ptr %4) #7
  %6 = load i64, ptr %2, align 8, !tbaa !8
  %7 = xor i64 %6, -1
  %8 = load i64, ptr %3, align 8, !tbaa !8
  %9 = add i64 %7, %8
  %10 = add i64 %9, 1
  %11 = load i64, ptr %3, align 8, !tbaa !8
  %12 = sub i64 %11, 1
  %13 = and i64 %10, %12
  store i64 %13, ptr %4, align 8, !tbaa !8
  %14 = load i64, ptr %2, align 8, !tbaa !8
  %15 = load i64, ptr %4, align 8, !tbaa !8
  %16 = add i64 %14, %15
  call void @llvm.lifetime.end.p0(i64 8, ptr %4) #7
  call void @llvm.lifetime.end.p0(i64 8, ptr %3) #7
  ret i64 %16
}

; Function Attrs: nounwind uwtable
define internal ptr @data_addr_from_base(ptr noundef %0) #0 {
  %2 = alloca ptr, align 8
  %3 = alloca i64, align 8
  store ptr %0, ptr %2, align 8, !tbaa !22
  call void @llvm.lifetime.start.p0(i64 8, ptr %3) #7
  %4 = call i64 @pmix_shmem_utils_pad_to_page(i64 noundef 4)
  store i64 %4, ptr %3, align 8, !tbaa !8
  %5 = load ptr, ptr %2, align 8, !tbaa !22
  %6 = ptrtoint ptr %5 to i64
  %7 = load i64, ptr %3, align 8, !tbaa !8
  %8 = add i64 %6, %7
  %9 = inttoptr i64 %8 to ptr
  call void @llvm.lifetime.end.p0(i64 8, ptr %3) #7
  ret ptr %9
}

; Function Attrs: nounwind uwtable
define i32 @pmix_shmem_segment_detach(ptr noundef %0) #0 {
  %2 = alloca ptr, align 8
  %3 = alloca i32, align 4
  store ptr %0, ptr %2, align 8, !tbaa !3
  call void @llvm.lifetime.start.p0(i64 4, ptr %3) #7
  store i32 0, ptr %3, align 4, !tbaa !12
  %4 = load ptr, ptr %2, align 8, !tbaa !3
  %5 = icmp ne ptr %4, null
  br i1 %5, label %6, label %25

6:                                                ; preds = %1
  %7 = load ptr, ptr %2, align 8, !tbaa !3
  %8 = getelementptr inbounds nuw %struct.pmix_shmem_t, ptr %7, i32 0, i32 1
  %9 = load volatile i8, ptr %8, align 8, !tbaa !23, !range !27, !noundef !28
  %10 = trunc i8 %9 to i1
  br i1 %10, label %11, label %25

11:                                               ; preds = %6
  %12 = load ptr, ptr %2, align 8, !tbaa !3
  %13 = getelementptr inbounds nuw %struct.pmix_shmem_t, ptr %12, i32 0, i32 3
  %14 = load ptr, ptr %13, align 8, !tbaa !20
  %15 = load ptr, ptr %2, align 8, !tbaa !3
  %16 = getelementptr inbounds nuw %struct.pmix_shmem_t, ptr %15, i32 0, i32 2
  %17 = load i64, ptr %16, align 8, !tbaa !14
  %18 = call i32 @munmap(ptr noundef %14, i64 noundef %17) #7
  store i32 %18, ptr %3, align 4, !tbaa !12
  %19 = load ptr, ptr %2, align 8, !tbaa !3
  %20 = getelementptr inbounds nuw %struct.pmix_shmem_t, ptr %19, i32 0, i32 1
  store volatile i8 0, ptr %20, align 8, !tbaa !23
  %21 = load ptr, ptr %2, align 8, !tbaa !3
  %22 = getelementptr inbounds nuw %struct.pmix_shmem_t, ptr %21, i32 0, i32 3
  store ptr null, ptr %22, align 8, !tbaa !20
  %23 = load ptr, ptr %2, align 8, !tbaa !3
  %24 = getelementptr inbounds nuw %struct.pmix_shmem_t, ptr %23, i32 0, i32 4
  store ptr null, ptr %24, align 8, !tbaa !24
  br label %25

25:                                               ; preds = %11, %6, %1
  %26 = load i32, ptr %3, align 4, !tbaa !12
  %27 = icmp eq i32 0, %26
  %28 = select i1 %27, i32 0, i32 -1
  call void @llvm.lifetime.end.p0(i64 4, ptr %3) #7
  ret i32 %28
}

; Function Attrs: nounwind uwtable
define internal i32 @segment_attach(ptr noundef %0, i64 noundef %1, i8 noundef zeroext %2) #0 {
  %4 = alloca ptr, align 8
  %5 = alloca i64, align 8
  %6 = alloca i8, align 1
  %7 = alloca i32, align 4
  %8 = alloca ptr, align 8
  %9 = alloca i32, align 4
  store ptr %0, ptr %4, align 8, !tbaa !3
  store i64 %1, ptr %5, align 8, !tbaa !8
  store i8 %2, ptr %6, align 1, !tbaa !21
  call void @llvm.lifetime.start.p0(i64 4, ptr %7) #7
  store i32 0, ptr %7, align 4, !tbaa !12
  call void @llvm.lifetime.start.p0(i64 8, ptr %8) #7
  store ptr inttoptr (i64 -1 to ptr), ptr %8, align 8, !tbaa !22
  call void @llvm.lifetime.start.p0(i64 4, ptr %9) #7
  %10 = load ptr, ptr %4, align 8, !tbaa !3
  %11 = getelementptr inbounds nuw %struct.pmix_shmem_t, ptr %10, i32 0, i32 5
  %12 = getelementptr inbounds [4097 x i8], ptr %11, i64 0, i64 0
  %13 = call i32 (ptr, i32, ...) @open(ptr noundef %12, i32 noundef 2)
  store i32 %13, ptr %9, align 4, !tbaa !12
  %14 = load i32, ptr %9, align 4, !tbaa !12
  %15 = icmp eq i32 %14, -1
  br i1 %15, label %16, label %17

16:                                               ; preds = %3
  store i32 -67, ptr %7, align 4, !tbaa !12
  br label %44

17:                                               ; preds = %3
  %18 = load i64, ptr %5, align 8, !tbaa !8
  %19 = inttoptr i64 %18 to ptr
  %20 = load ptr, ptr %4, align 8, !tbaa !3
  %21 = getelementptr inbounds nuw %struct.pmix_shmem_t, ptr %20, i32 0, i32 2
  %22 = load i64, ptr %21, align 8, !tbaa !14
  %23 = load i32, ptr %9, align 4, !tbaa !12
  %24 = call ptr @mmap(ptr noundef %19, i64 noundef %22, i32 noundef 3, i32 noundef 1, i32 noundef %23, i64 noundef 0) #7
  store ptr %24, ptr %8, align 8, !tbaa !22
  %25 = load ptr, ptr %8, align 8, !tbaa !22
  %26 = icmp eq ptr inttoptr (i64 -1 to ptr), %25
  br i1 %26, label %27, label %28

27:                                               ; preds = %17
  store i32 -32, ptr %7, align 4, !tbaa !12
  br label %44

28:                                               ; preds = %17
  %29 = load i8, ptr %6, align 1, !tbaa !21
  %30 = zext i8 %29 to i32
  %31 = and i32 %30, 1
  %32 = icmp ne i32 %31, 0
  br i1 %32, label %33, label %43

33:                                               ; preds = %28
  %34 = load i64, ptr %5, align 8, !tbaa !8
  %35 = icmp ne i64 %34, 0
  br i1 %35, label %36, label %43

36:                                               ; preds = %33
  %37 = load i64, ptr %5, align 8, !tbaa !8
  %38 = load ptr, ptr %8, align 8, !tbaa !22
  %39 = ptrtoint ptr %38 to i64
  %40 = icmp ne i64 %37, %39
  br i1 %40, label %41, label %42

41:                                               ; preds = %36
  store i32 -64, ptr %7, align 4, !tbaa !12
  br label %44

42:                                               ; preds = %36
  br label %43

43:                                               ; preds = %42, %33, %28
  br label %44

44:                                               ; preds = %43, %41, %27, %16
  %45 = load i32, ptr %9, align 4, !tbaa !12
  %46 = icmp ne i32 -1, %45
  br i1 %46, label %47, label %50

47:                                               ; preds = %44
  %48 = load i32, ptr %9, align 4, !tbaa !12
  %49 = call i32 @close(i32 noundef %48)
  br label %50

50:                                               ; preds = %47, %44
  %51 = load i32, ptr %7, align 4, !tbaa !12
  %52 = icmp ne i32 0, %51
  br i1 %52, label %53, label %65

53:                                               ; preds = %50
  %54 = load ptr, ptr %4, align 8, !tbaa !3
  %55 = call i32 @pmix_shmem_segment_detach(ptr noundef %54)
  br label %56

56:                                               ; preds = %53
  %57 = load i32, ptr %7, align 4, !tbaa !12
  %58 = icmp ne i32 -2, %57
  br i1 %58, label %59, label %62

59:                                               ; preds = %56
  %60 = load i32, ptr %7, align 4, !tbaa !12
  %61 = call ptr @PMIx_Error_string(i32 noundef %60)
  call void (i32, ptr, ...) @pmix_output(i32 noundef 0, ptr noundef @.str, ptr noundef %61, ptr noundef @.str.1, i32 noundef 91)
  br label %62

62:                                               ; preds = %59, %56
  br label %63

63:                                               ; preds = %62
  br label %64

64:                                               ; preds = %63
  br label %68

65:                                               ; preds = %50
  %66 = load ptr, ptr %4, align 8, !tbaa !3
  %67 = getelementptr inbounds nuw %struct.pmix_shmem_t, ptr %66, i32 0, i32 1
  store volatile i8 1, ptr %67, align 8, !tbaa !23
  br label %68

68:                                               ; preds = %65, %64
  %69 = load ptr, ptr %8, align 8, !tbaa !22
  %70 = load ptr, ptr %4, align 8, !tbaa !3
  %71 = getelementptr inbounds nuw %struct.pmix_shmem_t, ptr %70, i32 0, i32 3
  store ptr %69, ptr %71, align 8, !tbaa !20
  %72 = load ptr, ptr %8, align 8, !tbaa !22
  %73 = call ptr @data_addr_from_base(ptr noundef %72)
  %74 = load ptr, ptr %4, align 8, !tbaa !3
  %75 = getelementptr inbounds nuw %struct.pmix_shmem_t, ptr %74, i32 0, i32 4
  store ptr %73, ptr %75, align 8, !tbaa !24
  %76 = load i32, ptr %7, align 4, !tbaa !12
  call void @llvm.lifetime.end.p0(i64 4, ptr %9) #7
  call void @llvm.lifetime.end.p0(i64 8, ptr %8) #7
  call void @llvm.lifetime.end.p0(i64 4, ptr %7) #7
  ret i32 %76
}